target datalayout = "e-m:e-p270:32:32-p271:32:32-p272:64:64-i64:64-i128:128-f80:128-n8:16:32:64-S128"
target triple = "x86_64-pc-linux-gnu"

%class.QString = type { ptr }
%class.QObject = type { ptr, %class.QScopedPointer }
%class.QScopedPointer = type { ptr }
%class.QualityMapperDialog = type { %class.QDockWidget, %"class.Ui::QualityMapperDialogClass", ptr, ptr, %class.QGraphicsScene, [3 x ptr], double, i8, i8, %class.QList, i32, ptr, ptr, ptr, %class.QGraphicsScene, ptr, [3 x %class.QList.22], ptr, %class.QString, %class.QList, %class.QList, i8, %class.QList.25, %class.QList, ptr, ptr }
%class.QDockWidget = type { %class.QWidget }
%class.QWidget = type { %class.QObject, %class.QPaintDevice, ptr }
%class.QPaintDevice = type { ptr, i16, ptr }
%"class.Ui::QualityMapperDialogClass" = type { %class.Ui_QualityMapperDialogClass }
%class.Ui_QualityMapperDialogClass = type { ptr, ptr, ptr, ptr, ptr, ptr, ptr, ptr, ptr, ptr, ptr, ptr, ptr, ptr, ptr, ptr, ptr, ptr, ptr, ptr, ptr, ptr, ptr, ptr, ptr, ptr, ptr, ptr, ptr, ptr, ptr, ptr, ptr, ptr, ptr, ptr, ptr, ptr, ptr, ptr, ptr, ptr, ptr, ptr, ptr, ptr, ptr, ptr, ptr, ptr, ptr, ptr, ptr, ptr, ptr, ptr, ptr, ptr, ptr, ptr, ptr, ptr, ptr, ptr, ptr, ptr, ptr, ptr }
%class.QGraphicsScene = type { %class.QObject }
%class.QList.22 = type { %union.anon.24 }
%union.anon.24 = type { %struct.QListData }
%struct.QListData = type { ptr }
%class.QList.25 = type { %union.anon.27 }
%union.anon.27 = type { %struct.QListData }
%class.QList = type { %union.anon }
%union.anon = type { %struct.QListData }
%struct.CHART_INFO = type { ptr, float, float, float, float, i32, i32 }
%"class.std::vector.61" = type { %"struct.std::_Vector_base.62" }
%"struct.std::_Vector_base.62" = type { %"struct.std::_Vector_base<float, std::allocator<float>>::_Vector_impl" }
%"struct.std::_Vector_base<float, std::allocator<float>>::_Vector_impl" = type { %"struct.std::_Vector_base<float, std::allocator<float>>::_Vector_impl_data" }
%"struct.std::_Vector_base<float, std::allocator<float>>::_Vector_impl_data" = type { ptr, ptr, ptr }
%"class.vcg::Histogram" = type { %"class.std::vector.61", %"class.std::vector.61", float, float, float, float, i32, float, float, float }

; Function Attrs: mustprogress nounwind uwtable
define linkonce_odr noundef nonnull align 4 dereferenceable(4) ptr @_ZNKSt6vectorIfSaIfEEixEm(ptr noundef nonnull align 8 dereferenceable(24) %0, i64 noundef %1) #4 comdat align 2 {
  %3 = alloca ptr, align 8
  %4 = alloca i64, align 8
  store ptr %0, ptr %3, align 8
  store i64 %1, ptr %4, align 8
  %5 = load ptr, ptr %3, align 8
  %6 = getelementptr inbounds %"struct.std::_Vector_base.62", ptr %5, i32 0, i32 0
  %7 = getelementptr inbounds %"struct.std::_Vector_base<float, std::allocator<float>>::_Vector_impl_data", ptr %6, i32 0, i32 0
  %8 = load ptr, ptr %7, align 8
  %9 = load i64, ptr %4, align 8
  %10 = getelementptr inbounds float, ptr %8, i64 %9
  ret ptr %10
}

; Function Attrs: mustprogress nounwind uwtable
define linkonce_odr noundef i64 @_ZNKSt6vectorIfSaIfEE4sizeEv(ptr noundef nonnull align 8 dereferenceable(24) %0) #4 comdat align 2 {
  %2 = alloca ptr, align 8
  store ptr %0, ptr %2, align 8
  %3 = load ptr, ptr %2, align 8
  %4 = getelementptr inbounds %"struct.std::_Vector_base.62", ptr %3, i32 0, i32 0
  %5 = getelementptr inbounds %"struct.std::_Vector_base<float, std::allocator<float>>::_Vector_impl_data", ptr %4, i32 0, i32 1
  %6 = load ptr, ptr %5, align 8
  %7 = getelementptr inbounds %"struct.std::_Vector_base.62", ptr %3, i32 0, i32 0
  %8 = getelementptr inbounds %"struct.std::_Vector_base<float, std::allocator<float>>::_Vector_impl_data", ptr %7, i32 0, i32 0
  %9 = load ptr, ptr %8, align 8
  %10 = ptrtoint ptr %6 to i64
  %11 = ptrtoint ptr %9 to i64
  %12 = sub i64 %10, %11
  %13 = sdiv exact i64 %12, 4
  ret i64 %13
}

; Function Attrs: mustprogress nounwind uwtable
define linkonce_odr noundef float @_ZNK3vcg9HistogramIfE10PercentileEf(ptr noundef nonnull align 8 dereferenceable(80) %0, float noundef %1) #4 comdat align 2 {
  %3 = alloca float, align 4
  %4 = alloca ptr, align 8
  %5 = alloca float, align 4
  %6 = alloca float, align 4
  %7 = alloca float, align 4
  %8 = alloca i64, align 8
  store ptr %0, ptr %4, align 8
  store float %1, ptr %5, align 4
  %9 = load ptr, ptr %4, align 8
  %10 = getelementptr inbounds %"class.vcg::Histogram", ptr %9, i32 0, i32 0
  %11 = call noundef i64 @_ZNKSt6vectorIfSaIfEE4sizeEv(ptr noundef nonnull align 8 dereferenceable(24) %10) #3
  %12 = icmp eq i64 %11, 0
  br i1 %12, label %13, label %18

13:                                               ; preds = %2
  %14 = getelementptr inbounds %"class.vcg::Histogram", ptr %9, i32 0, i32 1
  %15 = call noundef i64 @_ZNKSt6vectorIfSaIfEE4sizeEv(ptr noundef nonnull align 8 dereferenceable(24) %14) #3
  %16 = icmp eq i64 %15, 0
  br i1 %16, label %17, label %18

17:                                               ; preds = %13
  store float 0.000000e+00, ptr %3, align 4
  br label %64

18:                                               ; preds = %13, %2
  store float 0.000000e+00, ptr %6, align 4
  store float 0.000000e+00, ptr %7, align 4
  store i64 0, ptr %8, align 8
  br label %19

19:                                               ; preds = %31, %18
  %20 = load i64, ptr %8, align 8
  %21 = getelementptr inbounds %"class.vcg::Histogram", ptr %9, i32 0, i32 0
  %22 = call noundef i64 @_ZNKSt6vectorIfSaIfEE4sizeEv(ptr noundef nonnull align 8 dereferenceable(24) %21) #3
  %23 = icmp ult i64 %20, %22
  br i1 %23, label %24, label %34

24:                                               ; preds = %19
  %25 = getelementptr inbounds %"class.vcg::Histogram", ptr %9, i32 0, i32 0
  %26 = load i64, ptr %8, align 8
  %27 = call noundef nonnull align 4 dereferenceable(4) ptr @_ZNKSt6vectorIfSaIfEEixEm(ptr noundef nonnull align 8 dereferenceable(24) %25, i64 noundef %26) #3
  %28 = load float, ptr %27, align 4
  %29 = load float, ptr %6, align 4
  %30 = fadd float %29, %28
  store float %30, ptr %6, align 4
  br label %31

31:                                               ; preds = %24
  %32 = load i64, ptr %8, align 8
  %33 = add i64 %32, 1
  store i64 %33, ptr %8, align 8
  br label %19, !llvm.loop !67

34:                                               ; preds = %19
  %35 = load float, ptr %5, align 4
  %36 = load float, ptr %6, align 4
  %37 = fmul float %36, %35
  store float %37, ptr %6, align 4
  store i64 0, ptr %8, align 8
  br label %38

38:                                               ; preds = %55, %34
  %39 = load i64, ptr %8, align 8
  %40 = getelementptr inbounds %"class.vcg::Histogram", ptr %9, i32 0, i32 0
  %41 = call noundef i64 @_ZNKSt6vectorIfSaIfEE4sizeEv(ptr noundef nonnull align 8 dereferenceable(24) %40) #3
  %42 = icmp ult i64 %39, %41
  br i1 %42, label %43, label %58

43:                                               ; preds = %38
  %44 = getelementptr inbounds %"class.vcg::Histogram", ptr %9, i32 0, i32 0
  %45 = load i64, ptr %8, align 8
  %46 = call noundef nonnull align 4 dereferenceable(4) ptr @_ZNKSt6vectorIfSaIfEEixEm(ptr noundef nonnull align 8 dereferenceable(24) %44, i64 noundef %45) #3
  %47 = load float, ptr %46, align 4
  %48 = load float, ptr %7, align 4
  %49 = fadd float %48, %47
  store float %49, ptr %7, align 4
  %50 = load float, ptr %7, align 4
  %51 = load float, ptr %6, align 4
  %52 = fcmp oge float %50, %51
  br i1 %52, label %53, label %54

53:                                               ; preds = %43
  br label %58

54:                                               ; preds = %43
  br label %55

55:                                               ; preds = %54
  %56 = load i64, ptr %8, align 8
  %57 = add i64 %56, 1
  store i64 %57, ptr %8, align 8
  br label %38, !llvm.loop !68

58:                                               ; preds = %53, %38
  %59 = getelementptr inbounds %"class.vcg::Histogram", ptr %9, i32 0, i32 1
  %60 = load i64, ptr %8, align 8
  %61 = add i64 %60, 1
  %62 = call noundef nonnull align 4 dereferenceable(4) ptr @_ZNKSt6vectorIfSaIfEEixEm(ptr noundef nonnull align 8 dereferenceable(24) %59, i64 noundef %61) #3
  %63 = load float, ptr %62, align 4
  store float %63, ptr %3, align 4
  br label %64

64:                                               ; preds = %58, %17
  %65 = load float, ptr %3, align 4
  ret float %65
}

; Function Attrs: mustprogress uwtable
define void @_ZN19QualityMapperDialog22on_clampButton_clickedEv(ptr noundef nonnull align 8 dereferenceable(824) %0) #5 align 2 {
  %2 = alloca ptr, align 8
  store ptr %0, ptr %2, align 8
  %3 = load ptr, ptr %2, align 8
  %4 = getelementptr inbounds %class.QualityMapperDialog, ptr %3, i32 0, i32 7
  store i8 0, ptr %4, align 8
  %5 = getelementptr inbounds %class.QualityMapperDialog, ptr %3, i32 0, i32 8
  store i8 0, ptr %5, align 1
  %6 = getelementptr inbounds %class.QualityMapperDialog, ptr %3, i32 0, i32 2
  %7 = load ptr, ptr %6, align 8
  %8 = getelementptr inbounds %class.QualityMapperDialog, ptr %3, i32 0, i32 1
  %9 = getelementptr inbounds %class.Ui_QualityMapperDialogClass, ptr %8, i32 0, i32 55
  %10 = load ptr, ptr %9, align 8
  %11 = call noundef i32 @_ZNK8QSpinBox5valueEv(ptr noundef nonnull align 8 dereferenceable(48) %10)
  %12 = sitofp i32 %11 to float
  %13 = fdiv float %12, 1.000000e+02
  %14 = call noundef float @_ZNK3vcg9HistogramIfE10PercentileEf(ptr noundef nonnull align 8 dereferenceable(80) %7, float noundef %13)
  %15 = getelementptr inbounds %class.QualityMapperDialog, ptr %3, i32 0, i32 3
  %16 = load ptr, ptr %15, align 8
  %17 = getelementptr inbounds %struct.CHART_INFO, ptr %16, i32 0, i32 1
  store float %14, ptr %17, align 8
  %18 = getelementptr inbounds %class.QualityMapperDialog, ptr %3, i32 0, i32 2
  %19 = load ptr, ptr %18, align 8
  %20 = getelementptr inbounds %class.QualityMapperDialog, ptr %3, i32 0, i32 1
  %21 = getelementptr inbounds %class.Ui_QualityMapperDialogClass, ptr %20, i32 0, i32 55
  %22 = load ptr, ptr %21, align 8
  %23 = call noundef i32 @_ZNK8QSpinBox5valueEv(ptr noundef nonnull align 8 dereferenceable(48) %22)
  %24 = sitofp i32 %23 to float
  %25 = fdiv float %24, 1.000000e+02
  %26 = fsub float 1.000000e+00, %25
  %27 = call noundef float @_ZNK3vcg9HistogramIfE10PercentileEf(ptr noundef nonnull align 8 dereferenceable(80) %19, float noundef %26)
  %28 = getelementptr inbounds %class.QualityMapperDialog, ptr %3, i32 0, i32 3
  %29 = load ptr, ptr %28, align 8
  %30 = getelementptr inbounds %struct.CHART_INFO, ptr %29, i32 0, i32 2
  store float %27, ptr %30, align 4
  call void @_ZN19QualityMapperDialog22initEqualizerSpinboxesEv(ptr noundef nonnull align 8 dereferenceable(824) %3)
  %31 = call noundef zeroext i1 @_ZN19QualityMapperDialog22drawEqualizerHistogramEbb(ptr noundef nonnull align 8 dereferenceable(824) %3, i1 noundef zeroext true, i1 noundef zeroext true)
  %32 = getelementptr inbounds %class.QualityMapperDialog, ptr %3, i32 0, i32 1
  %33 = getelementptr inbounds %class.Ui_QualityMapperDialogClass, ptr %32, i32 0, i32 65
  %34 = load ptr, ptr %33, align 8
  %35 = call noundef zeroext i1 @_ZNK15QAbstractButton9isCheckedEv(ptr noundef nonnull align 8 dereferenceable(48) %34)
  br i1 %35, label %36, label %37

36:                                               ; preds = %1
  call void @_ZN19QualityMapperDialog22on_applyButton_clickedEv(ptr noundef nonnull align 8 dereferenceable(824) %3)
  br label %37

37:                                               ; preds = %36, %1
  ret void
}