; Function Attrs: mustprogress uwtable
define void @_ZN19QualityMapperDialog22on_clampButton_clickedEv(ptr noundef nonnull align 8 dereferenceable(824) %0) local_unnamed_addr #9 align 2 {
  %2 = getelementptr inbounds i8, ptr %0, i64 656
  store i8 0, ptr %2, align 8
  %3 = getelementptr inbounds i8, ptr %0, i64 657
  store i8 0, ptr %3, align 1
  %4 = getelementptr inbounds i8, ptr %0, i64 592
  %5 = load ptr, ptr %4, align 8
  %6 = getelementptr inbounds i8, ptr %0, i64 488
  %7 = load ptr, ptr %6, align 8
  %8 = tail call noundef i32 @_ZNK8QSpinBox5valueEv(ptr noundef nonnull align 8 dereferenceable(48) %7)
  %9 = sitofp i32 %8 to float
  %10 = fdiv float %9, 1.000000e+02
  %11 = getelementptr inbounds i8, ptr %5, i64 8
  %12 = load ptr, ptr %11, align 8
  %13 = load ptr, ptr %5, align 8
  %14 = icmp eq ptr %12, %13
  br i1 %14, label %15, label %.lr.ph.preheader.i

15:                                               ; preds = %1
  %16 = getelementptr inbounds i8, ptr %5, i64 24
  %17 = getelementptr inbounds i8, ptr %5, i64 32
  %18 = load ptr, ptr %17, align 8
  %19 = load ptr, ptr %16, align 8
  %20 = icmp eq ptr %18, %19
  br i1 %20, label %_ZNK3vcg9HistogramIfE10PercentileEf.exit, label %._crit_edge24.i

.lr.ph.preheader.i:                               ; preds = %1
  %21 = ptrtoint ptr %12 to i64
  %22 = ptrtoint ptr %13 to i64
  %23 = sub i64 %21, %22
  %24 = ashr exact i64 %23, 2
  %umax.i = tail call i64 @llvm.umax.i64(i64 %24, i64 1)
  br label %.lr.ph.i

.lr.ph.i:                                         ; preds = %.lr.ph.i, %.lr.ph.preheader.i
  %.019.i = phi i64 [ %28, %.lr.ph.i ], [ 0, %.lr.ph.preheader.i ]
  %.01518.i = phi float [ %27, %.lr.ph.i ], [ 0.000000e+00, %.lr.ph.preheader.i ]
  %25 = getelementptr inbounds float, ptr %13, i64 %.019.i
  %26 = load float, ptr %25, align 4
  %27 = fadd float %.01518.i, %26
  %28 = add nuw i64 %.019.i, 1
  %exitcond.not.i = icmp eq i64 %28, %umax.i
  br i1 %exitcond.not.i, label %.lr.ph23.preheader.i, label %.lr.ph.i, !llvm.loop !174

.lr.ph23.preheader.i:                             ; preds = %.lr.ph.i
  %29 = fmul float %10, %27
  br label %.lr.ph23.i

.lr.ph23.i:                                       ; preds = %34, %.lr.ph23.preheader.i
  %.121.i = phi i64 [ %35, %34 ], [ 0, %.lr.ph23.preheader.i ]
  %.01420.i = phi float [ %32, %34 ], [ 0.000000e+00, %.lr.ph23.preheader.i ]
  %30 = getelementptr inbounds float, ptr %13, i64 %.121.i
  %31 = load float, ptr %30, align 4
  %32 = fadd float %.01420.i, %31
  %33 = fcmp ult float %32, %29
  br i1 %33, label %34, label %._crit_edge24.i.loopexit

34:                                               ; preds = %.lr.ph23.i
  %35 = add nuw i64 %.121.i, 1
  %exitcond30.not.i = icmp eq i64 %35, %umax.i
  br i1 %exitcond30.not.i, label %._crit_edge24.i.loopexit, label %.lr.ph23.i, !llvm.loop !175

._crit_edge24.i.loopexit:                         ; preds = %.lr.ph23.i, %34
  %.1.lcssa.i.ph = phi i64 [ %.121.i, %.lr.ph23.i ], [ %umax.i, %34 ]
  %.phi.trans.insert = getelementptr inbounds i8, ptr %5, i64 24
  %.pre = load ptr, ptr %.phi.trans.insert, align 8
  br label %._crit_edge24.i

._crit_edge24.i:                                  ; preds = %._crit_edge24.i.loopexit, %15
  %36 = phi ptr [ %19, %15 ], [ %.pre, %._crit_edge24.i.loopexit ]
  %.1.lcssa.i = phi i64 [ 0, %15 ], [ %.1.lcssa.i.ph, %._crit_edge24.i.loopexit ]
  %37 = getelementptr float, ptr %36, i64 %.1.lcssa.i
  %38 = getelementptr i8, ptr %37, i64 4
  %39 = load float, ptr %38, align 4
  br label %_ZNK3vcg9HistogramIfE10PercentileEf.exit

_ZNK3vcg9HistogramIfE10PercentileEf.exit:         ; preds = %15, %._crit_edge24.i
  %.016.i = phi float [ %39, %._crit_edge24.i ], [ 0.000000e+00, %15 ]
  %40 = getelementptr inbounds i8, ptr %0, i64 600
  %41 = load ptr, ptr %40, align 8
  %42 = getelementptr inbounds i8, ptr %41, i64 8
  store float %.016.i, ptr %42, align 8
  %43 = load ptr, ptr %4, align 8
  %44 = load ptr, ptr %6, align 8
  %45 = tail call noundef i32 @_ZNK8QSpinBox5valueEv(ptr noundef nonnull align 8 dereferenceable(48) %44)
  %46 = sitofp i32 %45 to float
  %47 = fdiv float %46, 1.000000e+02
  %48 = fsub float 1.000000e+00, %47
  %49 = getelementptr inbounds i8, ptr %43, i64 8
  %50 = load ptr, ptr %49, align 8
  %51 = load ptr, ptr %43, align 8
  %52 = icmp eq ptr %50, %51
  br i1 %52, label %53, label %.lr.ph.preheader.i1

53:                                               ; preds = %_ZNK3vcg9HistogramIfE10PercentileEf.exit
  %54 = getelementptr inbounds i8, ptr %43, i64 24
  %55 = getelementptr inbounds i8, ptr %43, i64 32
  %56 = load ptr, ptr %55, align 8
  %57 = load ptr, ptr %54, align 8
  %58 = icmp eq ptr %56, %57
  br i1 %58, label %_ZNK3vcg9HistogramIfE10PercentileEf.exit17, label %._crit_edge24.i13

.lr.ph.preheader.i1:                              ; preds = %_ZNK3vcg9HistogramIfE10PercentileEf.exit
  %59 = ptrtoint ptr %50 to i64
  %60 = ptrtoint ptr %51 to i64
  %61 = sub i64 %59, %60
  %62 = ashr exact i64 %61, 2
  %umax.i2 = tail call i64 @llvm.umax.i64(i64 %62, i64 1)
  br label %.lr.ph.i3

.lr.ph.i3:                                        ; preds = %.lr.ph.i3, %.lr.ph.preheader.i1
  %.019.i4 = phi i64 [ %66, %.lr.ph.i3 ], [ 0, %.lr.ph.preheader.i1 ]
  %.01518.i5 = phi float [ %65, %.lr.ph.i3 ], [ 0.000000e+00, %.lr.ph.preheader.i1 ]
  %63 = getelementptr inbounds float, ptr %51, i64 %.019.i4
  %64 = load float, ptr %63, align 4
  %65 = fadd float %.01518.i5, %64
  %66 = add nuw i64 %.019.i4, 1
  %exitcond.not.i6 = icmp eq i64 %66, %umax.i2
  br i1 %exitcond.not.i6, label %.lr.ph23.preheader.i8, label %.lr.ph.i3, !llvm.loop !174

.lr.ph23.preheader.i8:                            ; preds = %.lr.ph.i3
  %67 = fmul float %48, %65
  br label %.lr.ph23.i10

.lr.ph23.i10:                                     ; preds = %72, %.lr.ph23.preheader.i8
  %.121.i11 = phi i64 [ %73, %72 ], [ 0, %.lr.ph23.preheader.i8 ]
  %.01420.i12 = phi float [ %70, %72 ], [ 0.000000e+00, %.lr.ph23.preheader.i8 ]
  %68 = getelementptr inbounds float, ptr %51, i64 %.121.i11
  %69 = load float, ptr %68, align 4
  %70 = fadd float %.01420.i12, %69
  %71 = fcmp ult float %70, %67
  br i1 %71, label %72, label %._crit_edge24.i13.loopexit

72:                                               ; preds = %.lr.ph23.i10
  %73 = add nuw i64 %.121.i11, 1
  %exitcond30.not.i16 = icmp eq i64 %73, %umax.i2
  br i1 %exitcond30.not.i16, label %._crit_edge24.i13.loopexit, label %.lr.ph23.i10, !llvm.loop !175

._crit_edge24.i13.loopexit:                       ; preds = %.lr.ph23.i10, %72
  %.1.lcssa.i14.ph = phi i64 [ %.121.i11, %.lr.ph23.i10 ], [ %umax.i2, %72 ]
  %.phi.trans.insert20 = getelementptr inbounds i8, ptr %43, i64 24
  %.pre21 = load ptr, ptr %.phi.trans.insert20, align 8
  br label %._crit_edge24.i13

._crit_edge24.i13:                                ; preds = %._crit_edge24.i13.loopexit, %53
  %74 = phi ptr [ %57, %53 ], [ %.pre21, %._crit_edge24.i13.loopexit ]
  %.1.lcssa.i14 = phi i64 [ 0, %53 ], [ %.1.lcssa.i14.ph, %._crit_edge24.i13.loopexit ]
  %75 = getelementptr float, ptr %74, i64 %.1.lcssa.i14
  %76 = getelementptr i8, ptr %75, i64 4
  %77 = load float, ptr %76, align 4
  br label %_ZNK3vcg9HistogramIfE10PercentileEf.exit17

_ZNK3vcg9HistogramIfE10PercentileEf.exit17:       ; preds = %53, %._crit_edge24.i13
  %.016.i15 = phi float [ %77, %._crit_edge24.i13 ], [ 0.000000e+00, %53 ]
  %78 = load ptr, ptr %40, align 8
  %79 = getelementptr inbounds i8, ptr %78, i64 12
  store float %.016.i15, ptr %79, align 4
  tail call void @_ZN19QualityMapperDialog22initEqualizerSpinboxesEv(ptr noundef nonnull align 8 dereferenceable(824) %0)
  %80 = tail call noundef zeroext i1 @_ZN19QualityMapperDialog22drawEqualizerHistogramEbb(ptr noundef nonnull align 8 dereferenceable(824) %0, i1 noundef zeroext true, i1 noundef zeroext true)
  %81 = getelementptr inbounds i8, ptr %0, i64 568
  %82 = load ptr, ptr %81, align 8
  %83 = tail call noundef zeroext i1 @_ZNK15QAbstractButton9isCheckedEv(ptr noundef nonnull align 8 dereferenceable(48) %82)
  br i1 %83, label %84, label %85

84:                                               ; preds = %_ZNK3vcg9HistogramIfE10PercentileEf.exit17
  tail call void @_ZN19QualityMapperDialog22on_applyButton_clickedEv(ptr noundef nonnull align 8 dereferenceable(824) %0)
  br label %85

85:                                               ; preds = %84, %_ZNK3vcg9HistogramIfE10PercentileEf.exit17
  ret void
}